; Function Attrs: mustprogress uwtable
define noundef range(i64 -1152921504606846976, 1152921504606846976) i64 @_ZNK32pxrInternal_v0_24__pxrReserved__13Usd_CrateData24GetNumTimeSamplesForPathERKNS_7SdfPathE(ptr noundef nonnull readonly align 8 captures(none) dereferenceable(32) %0, ptr noundef nonnull align 4 dereferenceable(8) %1) unnamed_addr #3 align 2 {
  %3 = getelementptr inbounds nuw i8, ptr %0, i64 24
  %4 = load ptr, ptr %3, align 8
  %5 = tail call noundef nonnull align 8 dereferenceable(24) ptr @_ZNK32pxrInternal_v0_24__pxrReserved__17Usd_CrateDataImpl23_ListTimeSamplesForPathERKNS_7SdfPathE(ptr noundef nonnull align 8 dereferenceable(96) %4, ptr noundef nonnull align 4 dereferenceable(8) %1)
  %6 = getelementptr inbounds nuw i8, ptr %5, i64 8
  %7 = load ptr, ptr %6, align 8
  %8 = load ptr, ptr %5, align 8
  %9 = ptrtoint ptr %7 to i64
  %10 = ptrtoint ptr %8 to i64
  %11 = sub i64 %9, %10
  %12 = ashr exact i64 %11, 3
  ret i64 %12
}